; Function Attrs: mustprogress uwtable
define void @_ZN2cv4rgbd9RgbdPlaneclERKNS_11_InputArrayERKNS_12_OutputArrayES7_(ptr nocapture noundef nonnull readonly align 8 dereferenceable(56) %0, ptr noundef nonnull align 8 dereferenceable(24) %1, ptr noundef nonnull align 8 dereferenceable(24) %2, ptr noundef nonnull align 8 dereferenceable(24) %3) local_unnamed_addr #3 align 2 personality ptr @__gxx_personality_v0 {
  %5 = alloca %"class.cv::_InputArray", align 8
  %6 = alloca %"class.cv::Mat", align 8
  call void @_ZN2cv3MatC1Ev(ptr noundef nonnull align 8 dereferenceable(96) %6) #21
  %7 = getelementptr inbounds i8, ptr %5, i64 16
  store i32 0, ptr %7, align 8
  %8 = getelementptr inbounds i8, ptr %5, i64 20
  store i32 0, ptr %8, align 4
  store i32 16842752, ptr %5, align 8
  %9 = getelementptr inbounds i8, ptr %5, i64 8
  store ptr %6, ptr %9, align 8
  invoke void @_ZN2cv4rgbd9RgbdPlaneclERKNS_11_InputArrayES4_RKNS_12_OutputArrayES7_(ptr noundef nonnull align 8 dereferenceable(56) %0, ptr noundef nonnull align 8 dereferenceable(24) %1, ptr noundef nonnull align 8 dereferenceable(24) %5, ptr noundef nonnull align 8 dereferenceable(24) %2, ptr noundef nonnull align 8 dereferenceable(24) %3)
          to label %10 unwind label %11

10:                                               ; preds = %4
  call void @_ZN2cv3MatD1Ev(ptr noundef nonnull align 8 dereferenceable(96) %6) #21
  ret void

11:                                               ; preds = %4
  %12 = landingpad { ptr, i32 }
          cleanup
  call void @_ZN2cv3MatD1Ev(ptr noundef nonnull align 8 dereferenceable(96) %6) #21
  resume { ptr, i32 } %12
}